; Function Attrs: mustprogress nofree norecurse nosync nounwind willreturn memory(read, inaccessiblemem: none) uwtable
define hidden noundef ptr @_ZNK10RegionNode14has_unique_phiEv(ptr nocapture noundef nonnull readonly align 8 dereferenceable(60) %0) local_unnamed_addr #0 align 2 {
  %2 = getelementptr inbounds i8, ptr %0, i64 16
  %3 = load ptr, ptr %2, align 8
  %4 = getelementptr inbounds i8, ptr %0, i64 32
  %5 = load i32, ptr %4, align 8
  %6 = zext i32 %5 to i64
  %7 = getelementptr inbounds ptr, ptr %3, i64 %6
  %.not = icmp eq i32 %5, 0
  br i1 %.not, label %._crit_edge, label %.lr.ph

.lr.ph:                                           ; preds = %1, %15
  %.0912 = phi ptr [ %16, %15 ], [ %3, %1 ]
  %.01011 = phi ptr [ %.1, %15 ], [ null, %1 ]
  %8 = load ptr, ptr %.0912, align 8
  %9 = getelementptr inbounds i8, ptr %8, i64 44
  %10 = load i32, ptr %9, align 4
  %11 = and i32 %10, 15
  %12 = icmp eq i32 %11, 12
  br i1 %12, label %13, label %15

13:                                               ; preds = %.lr.ph
  %14 = icmp eq ptr %.01011, null
  br i1 %14, label %15, label %._crit_edge

15:                                               ; preds = %13, %.lr.ph
  %.1 = phi ptr [ %.01011, %.lr.ph ], [ %8, %13 ]
  %16 = getelementptr inbounds i8, ptr %.0912, i64 8
  %17 = icmp ult ptr %16, %7
  br i1 %17, label %.lr.ph, label %._crit_edge, !llvm.loop !9

._crit_edge:                                      ; preds = %13, %15, %1
  %.0 = phi ptr [ null, %1 ], [ %.1, %15 ], [ null, %13 ]
  ret ptr %.0
}